target datalayout = "e-m:e-p270:32:32-p271:32:32-p272:64:64-i64:64-i128:128-f80:128-n8:16:32:64-S128"
target triple = "x86_64-pc-linux-gnu"

%"class.icu_77::UnicodeString" = type { %"class.icu_77::Replaceable", %"union.icu_77::UnicodeString::StackBufferOrFields" }
%"class.icu_77::Replaceable" = type { %"class.icu_77::UObject" }
%"class.icu_77::UObject" = type { ptr }
%"union.icu_77::UnicodeString::StackBufferOrFields" = type { %struct.anon.0, [32 x i8] }
%struct.anon.0 = type { i16, i32, i32, ptr }
%"class.icu_77::DateTimePatternGenerator" = type <{ %"class.icu_77::UObject", %"class.icu_77::Locale", ptr, ptr, ptr, ptr, [16 x %"class.icu_77::UnicodeString"], [16 x [3 x %"class.icu_77::UnicodeString"]], [4 x %"class.icu_77::UnicodeString"], %"class.icu_77::UnicodeString", ptr, ptr, %"class.icu_77::UnicodeString", i16, [2 x i8], [7 x i32], i32, [4 x i8] }>
%"class.icu_77::Locale" = type <{ %"class.icu_77::UObject", [12 x i8], [6 x i8], [4 x i8], [2 x i8], i32, [4 x i8], ptr, [157 x i8], [3 x i8], ptr, i8, [7 x i8] }>
%"class.icu_77::Hashtable" = type { ptr, %struct.UHashtable }
%struct.UHashtable = type { ptr, ptr, ptr, ptr, ptr, ptr, i32, i32, i32, i32, float, float, i8, i8 }

; Function Attrs: inlinehint mustprogress nounwind uwtable
define linkonce_odr void @_ZN6icu_779HashtableD2Ev(ptr noundef nonnull align 8 dereferenceable(88) %0) unnamed_addr #2 comdat align 2 personality ptr @__gxx_personality_v0 {
  %2 = alloca ptr, align 8
  store ptr %0, ptr %2, align 8, !tbaa !87
  %3 = load ptr, ptr %2, align 8
  %4 = getelementptr inbounds nuw %"class.icu_77::Hashtable", ptr %3, i32 0, i32 0
  %5 = load ptr, ptr %4, align 8, !tbaa !97
  %6 = icmp ne ptr %5, null
  br i1 %6, label %7, label %11

7:                                                ; preds = %1
  %8 = getelementptr inbounds nuw %"class.icu_77::Hashtable", ptr %3, i32 0, i32 0
  %9 = load ptr, ptr %8, align 8, !tbaa !97
  invoke void @uhash_close_77(ptr noundef %9)
          to label %10 unwind label %12

10:                                               ; preds = %7
  br label %11

11:                                               ; preds = %10, %1
  ret void

12:                                               ; preds = %7
  %13 = landingpad { ptr, i32 }
          catch ptr null
  %14 = extractvalue { ptr, i32 } %13, 0
  call void @__clang_call_terminate(ptr %14) #17
  unreachable
}

; Function Attrs: mustprogress nounwind uwtable
define void @_ZN6icu_7724DateTimePatternGeneratorD2Ev(ptr noundef nonnull align 8 dereferenceable(4796) %0) unnamed_addr #0 align 2 {
  %2 = alloca ptr, align 8
  store ptr %0, ptr %2, align 8, !tbaa !23
  %3 = load ptr, ptr %2, align 8
  store ptr getelementptr inbounds inrange(-16, 24) ({ [5 x ptr] }, ptr @_ZTVN6icu_7724DateTimePatternGeneratorE, i32 0, i32 0, i32 2), ptr %3, align 8, !tbaa !37
  %4 = getelementptr inbounds nuw %"class.icu_77::DateTimePatternGenerator", ptr %3, i32 0, i32 11
  %5 = load ptr, ptr %4, align 8, !tbaa !51
  %6 = icmp eq ptr %5, null
  br i1 %6, label %8, label %7

7:                                                ; preds = %1
  call void @_ZN6icu_779HashtableD2Ev(ptr noundef nonnull align 8 dereferenceable(88) %5) #13
  call void @_ZN6icu_777UMemorydlEPv(ptr noundef %5) #13
  br label %8

8:                                                ; preds = %7, %1
  %9 = getelementptr inbounds nuw %"class.icu_77::DateTimePatternGenerator", ptr %3, i32 0, i32 2
  %10 = load ptr, ptr %9, align 8, !tbaa !54
  %11 = icmp eq ptr %10, null
  br i1 %11, label %16, label %12

12:                                               ; preds = %8
  %13 = load ptr, ptr %10, align 8, !tbaa !37
  %14 = getelementptr inbounds ptr, ptr %13, i64 1
  %15 = load ptr, ptr %14, align 8
  call void %15(ptr noundef nonnull align 8 dereferenceable(3216) %10) #13
  br label %16

16:                                               ; preds = %12, %8
  %17 = getelementptr inbounds nuw %"class.icu_77::DateTimePatternGenerator", ptr %3, i32 0, i32 3
  %18 = load ptr, ptr %17, align 8, !tbaa !55
  %19 = icmp eq ptr %18, null
  br i1 %19, label %24, label %20

20:                                               ; preds = %16
  %21 = load ptr, ptr %18, align 8, !tbaa !37
  %22 = getelementptr inbounds ptr, ptr %21, i64 1
  %23 = load ptr, ptr %22, align 8
  call void %23(ptr noundef nonnull align 8 dereferenceable(152) %18) #13
  br label %24

24:                                               ; preds = %20, %16
  %25 = getelementptr inbounds nuw %"class.icu_77::DateTimePatternGenerator", ptr %3, i32 0, i32 4
  %26 = load ptr, ptr %25, align 8, !tbaa !56
  %27 = icmp eq ptr %26, null
  br i1 %27, label %32, label %28

28:                                               ; preds = %24
  %29 = load ptr, ptr %26, align 8, !tbaa !37
  %30 = getelementptr inbounds ptr, ptr %29, i64 1
  %31 = load ptr, ptr %30, align 8
  call void %31(ptr noundef nonnull align 8 dereferenceable(16) %26) #13
  br label %32

32:                                               ; preds = %28, %24
  %33 = getelementptr inbounds nuw %"class.icu_77::DateTimePatternGenerator", ptr %3, i32 0, i32 5
  %34 = load ptr, ptr %33, align 8, !tbaa !57
  %35 = icmp eq ptr %34, null
  br i1 %35, label %40, label %36

36:                                               ; preds = %32
  %37 = load ptr, ptr %34, align 8, !tbaa !37
  %38 = getelementptr inbounds ptr, ptr %37, i64 1
  %39 = load ptr, ptr %38, align 8
  call void %39(ptr noundef nonnull align 8 dereferenceable(425) %34) #13
  br label %40

40:                                               ; preds = %36, %32
  %41 = getelementptr inbounds nuw %"class.icu_77::DateTimePatternGenerator", ptr %3, i32 0, i32 10
  %42 = load ptr, ptr %41, align 8, !tbaa !39
  %43 = icmp eq ptr %42, null
  br i1 %43, label %48, label %44

44:                                               ; preds = %40
  %45 = load ptr, ptr %42, align 8, !tbaa !37
  %46 = getelementptr inbounds ptr, ptr %45, i64 1
  %47 = load ptr, ptr %46, align 8
  call void %47(ptr noundef nonnull align 8 dereferenceable(152) %42) #13
  br label %48

48:                                               ; preds = %44, %40
  %49 = getelementptr inbounds nuw %"class.icu_77::DateTimePatternGenerator", ptr %3, i32 0, i32 12
  call void @_ZN6icu_7713UnicodeStringD1Ev(ptr noundef nonnull align 8 dereferenceable(64) %49) #13
  %50 = getelementptr inbounds nuw %"class.icu_77::DateTimePatternGenerator", ptr %3, i32 0, i32 9
  call void @_ZN6icu_7713UnicodeStringD1Ev(ptr noundef nonnull align 8 dereferenceable(64) %50) #13
  %51 = getelementptr inbounds nuw %"class.icu_77::DateTimePatternGenerator", ptr %3, i32 0, i32 8
  %52 = getelementptr inbounds [4 x %"class.icu_77::UnicodeString"], ptr %51, i32 0, i32 0
  %53 = getelementptr inbounds %"class.icu_77::UnicodeString", ptr %52, i64 4
  br label %54

54:                                               ; preds = %54, %48
  %55 = phi ptr [ %53, %48 ], [ %56, %54 ]
  %56 = getelementptr inbounds %"class.icu_77::UnicodeString", ptr %55, i64 -1
  call void @_ZN6icu_7713UnicodeStringD1Ev(ptr noundef nonnull align 8 dereferenceable(64) %56) #13
  %57 = icmp eq ptr %56, %52
  br i1 %57, label %58, label %54

58:                                               ; preds = %54
  %59 = getelementptr inbounds nuw %"class.icu_77::DateTimePatternGenerator", ptr %3, i32 0, i32 7
  %60 = getelementptr inbounds [16 x [3 x %"class.icu_77::UnicodeString"]], ptr %59, i32 0, i32 0, i32 0
  %61 = getelementptr inbounds %"class.icu_77::UnicodeString", ptr %60, i64 48
  br label %62

62:                                               ; preds = %62, %58
  %63 = phi ptr [ %61, %58 ], [ %64, %62 ]
  %64 = getelementptr inbounds %"class.icu_77::UnicodeString", ptr %63, i64 -1
  call void @_ZN6icu_7713UnicodeStringD1Ev(ptr noundef nonnull align 8 dereferenceable(64) %64) #13
  %65 = icmp eq ptr %64, %60
  br i1 %65, label %66, label %62

66:                                               ; preds = %62
  %67 = getelementptr inbounds nuw %"class.icu_77::DateTimePatternGenerator", ptr %3, i32 0, i32 6
  %68 = getelementptr inbounds [16 x %"class.icu_77::UnicodeString"], ptr %67, i32 0, i32 0
  %69 = getelementptr inbounds %"class.icu_77::UnicodeString", ptr %68, i64 16
  br label %70

70:                                               ; preds = %70, %66
  %71 = phi ptr [ %69, %66 ], [ %72, %70 ]
  %72 = getelementptr inbounds %"class.icu_77::UnicodeString", ptr %71, i64 -1
  call void @_ZN6icu_7713UnicodeStringD1Ev(ptr noundef nonnull align 8 dereferenceable(64) %72) #13
  %73 = icmp eq ptr %72, %68
  br i1 %73, label %74, label %70

74:                                               ; preds = %70
  %75 = getelementptr inbounds nuw %"class.icu_77::DateTimePatternGenerator", ptr %3, i32 0, i32 1
  call void @_ZN6icu_776LocaleD1Ev(ptr noundef nonnull align 8 dereferenceable(217) %75) #13
  call void @_ZN6icu_777UObjectD2Ev(ptr noundef nonnull align 8 dereferenceable(8) %3) #13
  ret void
}