; Function Attrs: mustprogress nounwind uwtable
define void @_ZN6icu_7724DateTimePatternGeneratorD2Ev(ptr noundef nonnull align 8 dereferenceable(4796) initializes((0, 8)) %0) unnamed_addr #0 align 2 personality ptr @__gxx_personality_v0 {
  store ptr getelementptr inbounds nuw inrange(-16, 24) (i8, ptr @_ZTVN6icu_7724DateTimePatternGeneratorE, i64 16), ptr %0, align 8, !tbaa !15
  %2 = getelementptr inbounds nuw i8, ptr %0, i64 4688
  %3 = load ptr, ptr %2, align 8, !tbaa !48
  %4 = icmp eq ptr %3, null
  br i1 %4, label %11, label %5

5:                                                ; preds = %1
  %6 = load ptr, ptr %3, align 8, !tbaa !66
  %.not.i = icmp eq ptr %6, null
  br i1 %.not.i, label %_ZN6icu_779HashtableD2Ev.exit, label %7

7:                                                ; preds = %5
  invoke void @uhash_close_77(ptr noundef nonnull %6)
          to label %_ZN6icu_779HashtableD2Ev.exit unwind label %8

8:                                                ; preds = %7
  %9 = landingpad { ptr, i32 }
          catch ptr null
  %10 = extractvalue { ptr, i32 } %9, 0
  tail call void @__clang_call_terminate(ptr %10) #37
  unreachable

_ZN6icu_779HashtableD2Ev.exit:                    ; preds = %5, %7
  tail call void @_ZN6icu_777UMemorydlEPv(ptr noundef nonnull %3) #35
  br label %11

11:                                               ; preds = %_ZN6icu_779HashtableD2Ev.exit, %1
  %12 = getelementptr inbounds nuw i8, ptr %0, i64 232
  %13 = load ptr, ptr %12, align 8, !tbaa !31
  %14 = icmp eq ptr %13, null
  br i1 %14, label %19, label %15

15:                                               ; preds = %11
  %16 = load ptr, ptr %13, align 8, !tbaa !15
  %17 = getelementptr inbounds nuw i8, ptr %16, i64 8
  %18 = load ptr, ptr %17, align 8
  tail call void %18(ptr noundef nonnull align 8 dereferenceable(3216) %13) #35
  br label %19

19:                                               ; preds = %15, %11
  %20 = getelementptr inbounds nuw i8, ptr %0, i64 240
  %21 = load ptr, ptr %20, align 8, !tbaa !32
  %22 = icmp eq ptr %21, null
  br i1 %22, label %27, label %23

23:                                               ; preds = %19
  %24 = load ptr, ptr %21, align 8, !tbaa !15
  %25 = getelementptr inbounds nuw i8, ptr %24, i64 8
  %26 = load ptr, ptr %25, align 8
  tail call void %26(ptr noundef nonnull align 8 dereferenceable(152) %21) #35
  br label %27

27:                                               ; preds = %23, %19
  %28 = getelementptr inbounds nuw i8, ptr %0, i64 248
  %29 = load ptr, ptr %28, align 8, !tbaa !33
  %30 = icmp eq ptr %29, null
  br i1 %30, label %35, label %31

31:                                               ; preds = %27
  %32 = load ptr, ptr %29, align 8, !tbaa !15
  %33 = getelementptr inbounds nuw i8, ptr %32, i64 8
  %34 = load ptr, ptr %33, align 8
  tail call void %34(ptr noundef nonnull align 8 dereferenceable(16) %29) #35
  br label %35

35:                                               ; preds = %31, %27
  %36 = getelementptr inbounds nuw i8, ptr %0, i64 256
  %37 = load ptr, ptr %36, align 8, !tbaa !34
  %38 = icmp eq ptr %37, null
  br i1 %38, label %43, label %39

39:                                               ; preds = %35
  %40 = load ptr, ptr %37, align 8, !tbaa !15
  %41 = getelementptr inbounds nuw i8, ptr %40, i64 8
  %42 = load ptr, ptr %41, align 8
  tail call void %42(ptr noundef nonnull align 8 dereferenceable(425) %37) #35
  br label %43

43:                                               ; preds = %39, %35
  %44 = getelementptr inbounds nuw i8, ptr %0, i64 4680
  %45 = load ptr, ptr %44, align 8, !tbaa !46
  %46 = icmp eq ptr %45, null
  br i1 %46, label %51, label %47

47:                                               ; preds = %43
  %48 = load ptr, ptr %45, align 8, !tbaa !15
  %49 = getelementptr inbounds nuw i8, ptr %48, i64 8
  %50 = load ptr, ptr %49, align 8
  tail call void %50(ptr noundef nonnull align 8 dereferenceable(152) %45) #35
  br label %51

51:                                               ; preds = %47, %43
  %52 = getelementptr inbounds nuw i8, ptr %0, i64 4696
  tail call void @_ZN6icu_7713UnicodeStringD1Ev(ptr noundef nonnull align 8 dereferenceable(64) %52) #35
  %53 = getelementptr inbounds nuw i8, ptr %0, i64 4616
  tail call void @_ZN6icu_7713UnicodeStringD1Ev(ptr noundef nonnull align 8 dereferenceable(64) %53) #35
  br label %54

54:                                               ; preds = %54, %51
  %.idx = phi i64 [ 4616, %51 ], [ %.add, %54 ]
  %.add = add nsw i64 %.idx, -64
  %.ptr6 = getelementptr inbounds i8, ptr %0, i64 %.add
  tail call void @_ZN6icu_7713UnicodeStringD1Ev(ptr noundef nonnull align 8 dereferenceable(64) %.ptr6) #35
  %55 = icmp eq i64 %.add, 4360
  br i1 %55, label %.preheader16, label %54

.preheader16:                                     ; preds = %54, %.preheader16
  %.idx8 = phi i64 [ %.add9, %.preheader16 ], [ 4360, %54 ]
  %.add9 = add nsw i64 %.idx8, -64
  %.ptr10 = getelementptr inbounds i8, ptr %0, i64 %.add9
  tail call void @_ZN6icu_7713UnicodeStringD1Ev(ptr noundef nonnull align 8 dereferenceable(64) %.ptr10) #35
  %56 = icmp eq i64 %.add9, 1288
  br i1 %56, label %.preheader, label %.preheader16

.preheader:                                       ; preds = %.preheader16, %.preheader
  %.idx12 = phi i64 [ %.add13, %.preheader ], [ 1288, %.preheader16 ]
  %.add13 = add nsw i64 %.idx12, -64
  %.ptr14 = getelementptr inbounds i8, ptr %0, i64 %.add13
  tail call void @_ZN6icu_7713UnicodeStringD1Ev(ptr noundef nonnull align 8 dereferenceable(64) %.ptr14) #35
  %57 = icmp eq i64 %.add13, 264
  br i1 %57, label %58, label %.preheader

58:                                               ; preds = %.preheader
  %59 = getelementptr inbounds nuw i8, ptr %0, i64 8
  tail call void @_ZN6icu_776LocaleD1Ev(ptr noundef nonnull align 8 dereferenceable(217) %59) #35
  tail call void @_ZN6icu_777UObjectD2Ev(ptr noundef nonnull align 8 dereferenceable(8) %0) #35
  ret void
}